target datalayout = "e-m:e-p270:32:32-p271:32:32-p272:64:64-i64:64-i128:128-f80:128-n8:16:32:64-S128"
target triple = "x86_64-pc-linux-gnu"

%struct._object = type { %union.anon, ptr }
%union.anon = type { i64 }
%struct.anon = type { i32, i32 }

; Function Attrs: alwaysinline nounwind uwtable
define internal i32 @_Py_IsImmortal(ptr noundef %0) #5 {
  %2 = alloca ptr, align 8
  store ptr %0, ptr %2, align 8, !tbaa !53
  %3 = load ptr, ptr %2, align 8, !tbaa !53
  %4 = getelementptr inbounds nuw %struct._object, ptr %3, i32 0, i32 0
  %5 = getelementptr inbounds nuw %struct.anon, ptr %4, i32 0, i32 0
  %6 = load i32, ptr %5, align 8, !tbaa !11
  %7 = icmp slt i32 %6, 0
  %8 = zext i1 %7 to i32
  ret i32 %8
}

; Function Attrs: alwaysinline nounwind uwtable
define internal void @Py_DECREF(ptr noundef %0) #5 {
  %2 = alloca ptr, align 8
  store ptr %0, ptr %2, align 8, !tbaa !53
  %3 = load ptr, ptr %2, align 8, !tbaa !53
  %4 = call i32 @_Py_IsImmortal(ptr noundef %3)
  %5 = icmp ne i32 %4, 0
  br i1 %5, label %6, label %7

6:                                                ; preds = %1
  br label %16

7:                                                ; preds = %1
  %8 = load ptr, ptr %2, align 8, !tbaa !53
  %9 = getelementptr inbounds nuw %struct._object, ptr %8, i32 0, i32 0
  %10 = getelementptr inbounds nuw %struct.anon, ptr %9, i32 0, i32 0
  %11 = load i32, ptr %10, align 8, !tbaa !11
  %12 = add i32 %11, -1
  store i32 %12, ptr %10, align 8, !tbaa !11
  %13 = icmp eq i32 %12, 0
  br i1 %13, label %14, label %16

14:                                               ; preds = %7
  %15 = load ptr, ptr %2, align 8, !tbaa !53
  call void @_Py_Dealloc(ptr noundef %15)
  br label %16

16:                                               ; preds = %6, %14, %7
  ret void
}

; Function Attrs: inlinehint nounwind uwtable
define internal void @Py_XDECREF(ptr noundef %0) #2 {
  %2 = alloca ptr, align 8
  store ptr %0, ptr %2, align 8, !tbaa !53
  %3 = load ptr, ptr %2, align 8, !tbaa !53
  %4 = icmp ne ptr %3, null
  br i1 %4, label %5, label %7

5:                                                ; preds = %1
  %6 = load ptr, ptr %2, align 8, !tbaa !53
  call void @Py_DECREF(ptr noundef %6)
  br label %7

7:                                                ; preds = %5, %1
  ret void
}

; Function Attrs: nounwind uwtable
define internal ptr @int_triple(i32 noundef %0, i32 noundef %1, i32 noundef %2) #0 {
  %4 = alloca ptr, align 8
  %5 = alloca i32, align 4
  %6 = alloca i32, align 4
  %7 = alloca i32, align 4
  %8 = alloca ptr, align 8
  %9 = alloca ptr, align 8
  %10 = alloca ptr, align 8
  %11 = alloca [3 x ptr], align 16
  %12 = alloca i32, align 4
  store i32 %0, ptr %5, align 4, !tbaa !9
  store i32 %1, ptr %6, align 4, !tbaa !9
  store i32 %2, ptr %7, align 4, !tbaa !9
  call void @llvm.lifetime.start.p0(i64 8, ptr %8) #8
  %13 = load i32, ptr %5, align 4, !tbaa !9
  %14 = sext i32 %13 to i64
  %15 = call ptr @PyLong_FromLong(i64 noundef %14)
  store ptr %15, ptr %8, align 8, !tbaa !53
  call void @llvm.lifetime.start.p0(i64 8, ptr %9) #8
  store ptr null, ptr %9, align 8, !tbaa !53
  call void @llvm.lifetime.start.p0(i64 8, ptr %10) #8
  store ptr null, ptr %10, align 8, !tbaa !53
  %16 = load ptr, ptr %8, align 8, !tbaa !53
  %17 = icmp eq ptr %16, null
  br i1 %17, label %18, label %19

18:                                               ; preds = %3
  br label %41

19:                                               ; preds = %3
  %20 = load i32, ptr %6, align 4, !tbaa !9
  %21 = sext i32 %20 to i64
  %22 = call ptr @PyLong_FromLong(i64 noundef %21)
  store ptr %22, ptr %9, align 8, !tbaa !53
  %23 = load ptr, ptr %9, align 8, !tbaa !53
  %24 = icmp eq ptr %23, null
  br i1 %24, label %25, label %26

25:                                               ; preds = %19
  br label %41

26:                                               ; preds = %19
  %27 = load i32, ptr %7, align 4, !tbaa !9
  %28 = sext i32 %27 to i64
  %29 = call ptr @PyLong_FromLong(i64 noundef %28)
  store ptr %29, ptr %10, align 8, !tbaa !53
  %30 = load ptr, ptr %10, align 8, !tbaa !53
  %31 = icmp eq ptr %30, null
  br i1 %31, label %32, label %33

32:                                               ; preds = %26
  br label %41

33:                                               ; preds = %26
  %34 = load ptr, ptr %8, align 8, !tbaa !53
  store ptr %34, ptr %11, align 8, !tbaa !53
  %35 = getelementptr inbounds ptr, ptr %11, i64 1
  %36 = load ptr, ptr %9, align 8, !tbaa !53
  store ptr %36, ptr %35, align 8, !tbaa !53
  %37 = getelementptr inbounds ptr, ptr %11, i64 2
  %38 = load ptr, ptr %10, align 8, !tbaa !53
  store ptr %38, ptr %37, align 8, !tbaa !53
  %39 = getelementptr inbounds [3 x ptr], ptr %11, i64 0, i64 0
  %40 = call ptr @_PyTuple_FromArraySteal(ptr noundef %39, i64 noundef 3)
  store ptr %40, ptr %4, align 8
  store i32 1, ptr %12, align 4
  br label %45

41:                                               ; preds = %32, %25, %18
  %42 = load ptr, ptr %8, align 8, !tbaa !53
  call void @Py_XDECREF(ptr noundef %42)
  %43 = load ptr, ptr %9, align 8, !tbaa !53
  call void @Py_XDECREF(ptr noundef %43)
  %44 = load ptr, ptr %10, align 8, !tbaa !53
  call void @Py_XDECREF(ptr noundef %44)
  store ptr null, ptr %4, align 8
  store i32 1, ptr %12, align 4
  br label %45

45:                                               ; preds = %41, %33
  call void @llvm.lifetime.end.p0(i64 8, ptr %10) #8
  call void @llvm.lifetime.end.p0(i64 8, ptr %9) #8
  call void @llvm.lifetime.end.p0(i64 8, ptr %8) #8
  %46 = load ptr, ptr %4, align 8
  ret ptr %46
}