; Function Attrs: nounwind uwtable
define internal fastcc ptr @int_triple(i32 noundef %0, i32 noundef %1, i32 noundef %2) unnamed_addr #2 {
  %4 = alloca [3 x ptr], align 16
  %5 = sext i32 %0 to i64
  %6 = tail call ptr @PyLong_FromLong(i64 noundef %5) #11
  %7 = icmp eq ptr %6, null
  br i1 %7, label %Py_XDECREF.exit20, label %8

8:                                                ; preds = %3
  %9 = sext i32 %1 to i64
  %10 = tail call ptr @PyLong_FromLong(i64 noundef %9) #11
  %11 = icmp eq ptr %10, null
  br i1 %11, label %20, label %12

12:                                               ; preds = %8
  %13 = sext i32 %2 to i64
  %14 = tail call ptr @PyLong_FromLong(i64 noundef %13) #11
  %15 = icmp eq ptr %14, null
  br i1 %15, label %20, label %16

16:                                               ; preds = %12
  store ptr %6, ptr %4, align 16, !tbaa !46
  %17 = getelementptr inbounds nuw i8, ptr %4, i64 8
  store ptr %10, ptr %17, align 8, !tbaa !46
  %18 = getelementptr inbounds nuw i8, ptr %4, i64 16
  store ptr %14, ptr %18, align 16, !tbaa !46
  %19 = call ptr @_PyTuple_FromArraySteal(ptr noundef nonnull %4, i64 noundef 3) #11
  br label %Py_XDECREF.exit20

20:                                               ; preds = %12, %8
  %21 = load i32, ptr %6, align 8, !tbaa !33
  %.not.i.i = icmp sgt i32 %21, -1
  br i1 %.not.i.i, label %22, label %Py_XDECREF.exit

22:                                               ; preds = %20
  %23 = add nsw i32 %21, -1
  store i32 %23, ptr %6, align 8, !tbaa !33
  %24 = icmp eq i32 %23, 0
  br i1 %24, label %25, label %Py_XDECREF.exit

25:                                               ; preds = %22
  tail call void @_Py_Dealloc(ptr noundef nonnull %6) #11
  br label %Py_XDECREF.exit

Py_XDECREF.exit:                                  ; preds = %20, %22, %25
  br i1 %11, label %Py_XDECREF.exit20, label %26

26:                                               ; preds = %Py_XDECREF.exit
  %27 = load i32, ptr %10, align 8, !tbaa !33
  %.not.i.i19 = icmp sgt i32 %27, -1
  br i1 %.not.i.i19, label %28, label %Py_XDECREF.exit20

28:                                               ; preds = %26
  %29 = add nsw i32 %27, -1
  store i32 %29, ptr %10, align 8, !tbaa !33
  %30 = icmp eq i32 %29, 0
  br i1 %30, label %31, label %Py_XDECREF.exit20

31:                                               ; preds = %28
  tail call void @_Py_Dealloc(ptr noundef nonnull %10) #11
  br label %Py_XDECREF.exit20

Py_XDECREF.exit20:                                ; preds = %3, %31, %28, %26, %Py_XDECREF.exit, %16
  %.013 = phi ptr [ %19, %16 ], [ null, %Py_XDECREF.exit ], [ null, %26 ], [ null, %28 ], [ null, %31 ], [ null, %3 ]
  ret ptr %.013
}